target datalayout = "e-m:e-p270:32:32-p271:32:32-p272:64:64-i64:64-i128:128-f80:128-n8:16:32:64-S128"
target triple = "x86_64-unknown-linux-gnu"

%"class.grpc_core::ConnectedSubchannel" = type { %"class.grpc_core::RefCounted", ptr, %"class.grpc_core::ChannelArgs", %"class.grpc_core::RefCountedPtr" }
%"class.grpc_core::RefCounted" = type { %"class.grpc_core::PolymorphicRefCount", %"class.grpc_core::RefCount" }
%"class.grpc_core::PolymorphicRefCount" = type { ptr }
%"class.grpc_core::RefCount" = type { %"struct.std::atomic.0" }
%"struct.std::atomic.0" = type { %"struct.std::__atomic_base.1" }
%"struct.std::__atomic_base.1" = type { i64 }
%"class.grpc_core::ChannelArgs" = type { %"class.grpc_core::AVL" }
%"class.grpc_core::AVL" = type { %"class.grpc_core::RefCountedPtr.2" }
%"class.grpc_core::RefCountedPtr.2" = type { ptr }
%"class.grpc_core::RefCountedPtr" = type { ptr }
%struct.grpc_closure = type { %union.anon, ptr, ptr, %union.anon.3 }
%union.anon = type { ptr }
%union.anon.3 = type { i64 }
%struct.grpc_transport_op = type { ptr, %"class.std::unique_ptr", ptr, %"class.absl::lts_20230802::Status", %"class.absl::lts_20230802::Status", ptr, ptr, ptr, ptr, ptr, ptr, ptr, %struct.anon, i32, i8, i8, i8, %struct.grpc_handler_private_op_data }
%"class.std::unique_ptr" = type { %"struct.std::__uniq_ptr_data" }
%"struct.std::__uniq_ptr_data" = type { %"class.std::__uniq_ptr_impl" }
%"class.std::__uniq_ptr_impl" = type { %"class.std::tuple" }
%"class.std::tuple" = type { %"struct.std::_Tuple_impl" }
%"struct.std::_Tuple_impl" = type { %"struct.std::_Head_base.7" }
%"struct.std::_Head_base.7" = type { ptr }
%"class.absl::lts_20230802::Status" = type { i64 }
%struct.anon = type { ptr, ptr }
%struct.grpc_handler_private_op_data = type { ptr, %struct.grpc_closure }
%struct.grpc_channel_element = type { ptr, ptr }
%struct.grpc_channel_filter = type { ptr, ptr, ptr, ptr, i64, ptr, ptr, ptr, i64, ptr, ptr, ptr, ptr, ptr }

; Function Attrs: mustprogress uwtable
define void @_ZN9grpc_core19ConnectedSubchannel4PingEP12grpc_closureS2_(ptr noundef nonnull align 8 dereferenceable(40) %this, ptr noundef %on_initiate, ptr noundef %on_ack) #4 align 2 {
entry:
  %this.addr = alloca ptr, align 8
  %on_initiate.addr = alloca ptr, align 8
  %on_ack.addr = alloca ptr, align 8
  %op = alloca ptr, align 8
  %elem = alloca ptr, align 8
  store ptr %this, ptr %this.addr, align 8
  store ptr %on_initiate, ptr %on_initiate.addr, align 8
  store ptr %on_ack, ptr %on_ack.addr, align 8
  %this1 = load ptr, ptr %this.addr, align 8
  %call = call noundef ptr @_Z22grpc_make_transport_opP12grpc_closure(ptr noundef null)
  store ptr %call, ptr %op, align 8
  %0 = load ptr, ptr %on_initiate.addr, align 8
  %1 = load ptr, ptr %op, align 8
  %send_ping = getelementptr inbounds %struct.grpc_transport_op, ptr %1, i32 0, i32 12
  %on_initiate2 = getelementptr inbounds %struct.anon, ptr %send_ping, i32 0, i32 0
  store ptr %0, ptr %on_initiate2, align 8
  %2 = load ptr, ptr %on_ack.addr, align 8
  %3 = load ptr, ptr %op, align 8
  %send_ping3 = getelementptr inbounds %struct.grpc_transport_op, ptr %3, i32 0, i32 12
  %on_ack4 = getelementptr inbounds %struct.anon, ptr %send_ping3, i32 0, i32 1
  store ptr %2, ptr %on_ack4, align 8
  %channel_stack_ = getelementptr inbounds %"class.grpc_core::ConnectedSubchannel", ptr %this1, i32 0, i32 1
  %4 = load ptr, ptr %channel_stack_, align 8
  %call5 = call noundef ptr @_Z26grpc_channel_stack_elementP18grpc_channel_stackm(ptr noundef %4, i64 noundef 0)
  store ptr %call5, ptr %elem, align 8
  %5 = load ptr, ptr %elem, align 8
  %filter = getelementptr inbounds %struct.grpc_channel_element, ptr %5, i32 0, i32 0
  %6 = load ptr, ptr %filter, align 8
  %start_transport_op = getelementptr inbounds %struct.grpc_channel_filter, ptr %6, i32 0, i32 3
  %7 = load ptr, ptr %start_transport_op, align 8
  %8 = load ptr, ptr %elem, align 8
  %9 = load ptr, ptr %op, align 8
  call void %7(ptr noundef %8, ptr noundef %9)
  ret void
}