; Function Attrs: mustprogress uwtable
define void @_ZN9grpc_core19ConnectedSubchannel4PingEP12grpc_closureS2_(ptr nocapture noundef nonnull readonly align 8 dereferenceable(40) %this, ptr noundef %on_initiate, ptr noundef %on_ack) local_unnamed_addr #3 align 2 {
entry:
  %call = tail call noundef ptr @_Z22grpc_make_transport_opP12grpc_closure(ptr noundef null)
  %send_ping = getelementptr inbounds i8, ptr %call, i64 96
  store ptr %on_initiate, ptr %send_ping, align 8
  %on_ack4 = getelementptr inbounds i8, ptr %call, i64 104
  store ptr %on_ack, ptr %on_ack4, align 8
  %channel_stack_ = getelementptr inbounds i8, ptr %this, i64 16
  %0 = load ptr, ptr %channel_stack_, align 8
  %call5 = tail call noundef ptr @_Z26grpc_channel_stack_elementP18grpc_channel_stackm(ptr noundef %0, i64 noundef 0)
  %1 = load ptr, ptr %call5, align 8
  %start_transport_op = getelementptr inbounds i8, ptr %1, i64 24
  %2 = load ptr, ptr %start_transport_op, align 8
  tail call void %2(ptr noundef nonnull %call5, ptr noundef %call)
  ret void
}